target datalayout = "e-m:e-p270:32:32-p271:32:32-p272:64:64-i64:64-i128:128-f80:128-n8:16:32:64-S128"
target triple = "x86_64-pc-linux-gnu"

%struct.WB_RANGE_TYPE = type { i32, i32, i32 }

@WB_RANGE_NUM = internal global i32 1053, align 4

; Function Attrs: nounwind uwtable
define internal i32 @wb_get_type(i32 noundef %0) #0 {
  %2 = alloca i32, align 4
  %3 = alloca i32, align 4
  %4 = alloca i32, align 4
  %5 = alloca i32, align 4
  %6 = alloca i32, align 4
  store i32 %0, ptr %2, align 4, !tbaa !9
  call void @llvm.lifetime.start.p0(i64 4, ptr %3) #7
  call void @llvm.lifetime.start.p0(i64 4, ptr %4) #7
  call void @llvm.lifetime.start.p0(i64 4, ptr %5) #7
  call void @llvm.lifetime.start.p0(i64 4, ptr %6) #7
  store i32 0, ptr %3, align 4, !tbaa !9
  %7 = load i32, ptr @WB_RANGE_NUM, align 4, !tbaa !9
  store i32 %7, ptr %4, align 4, !tbaa !9
  br label %8

8:                                                ; preds = %29, %1
  %9 = load i32, ptr %3, align 4, !tbaa !9
  %10 = load i32, ptr %4, align 4, !tbaa !9
  %11 = icmp ult i32 %9, %10
  br i1 %11, label %12, label %30

12:                                               ; preds = %8
  %13 = load i32, ptr %3, align 4, !tbaa !9
  %14 = load i32, ptr %4, align 4, !tbaa !9
  %15 = add i32 %13, %14
  %16 = lshr i32 %15, 1
  store i32 %16, ptr %5, align 4, !tbaa !9
  %17 = load i32, ptr %2, align 4, !tbaa !9
  %18 = load i32, ptr %5, align 4, !tbaa !9
  %19 = zext i32 %18 to i64
  %20 = getelementptr inbounds nuw [1053 x %struct.WB_RANGE_TYPE], ptr @WB_RANGES, i64 0, i64 %19
  %21 = getelementptr inbounds nuw %struct.WB_RANGE_TYPE, ptr %20, i32 0, i32 1
  %22 = load i32, ptr %21, align 4, !tbaa !73
  %23 = icmp ugt i32 %17, %22
  br i1 %23, label %24, label %27

24:                                               ; preds = %12
  %25 = load i32, ptr %5, align 4, !tbaa !9
  %26 = add i32 %25, 1
  store i32 %26, ptr %3, align 4, !tbaa !9
  br label %29

27:                                               ; preds = %12
  %28 = load i32, ptr %5, align 4, !tbaa !9
  store i32 %28, ptr %4, align 4, !tbaa !9
  br label %29

29:                                               ; preds = %27, %24
  br label %8, !llvm.loop !75

30:                                               ; preds = %8
  %31 = load i32, ptr %3, align 4, !tbaa !9
  %32 = load i32, ptr @WB_RANGE_NUM, align 4, !tbaa !9
  %33 = icmp ult i32 %31, %32
  br i1 %33, label %34, label %48

34:                                               ; preds = %30
  %35 = load i32, ptr %2, align 4, !tbaa !9
  %36 = load i32, ptr %3, align 4, !tbaa !9
  %37 = zext i32 %36 to i64
  %38 = getelementptr inbounds nuw [1053 x %struct.WB_RANGE_TYPE], ptr @WB_RANGES, i64 0, i64 %37
  %39 = getelementptr inbounds nuw %struct.WB_RANGE_TYPE, ptr %38, i32 0, i32 0
  %40 = load i32, ptr %39, align 4, !tbaa !76
  %41 = icmp uge i32 %35, %40
  br i1 %41, label %42, label %48

42:                                               ; preds = %34
  %43 = load i32, ptr %3, align 4, !tbaa !9
  %44 = zext i32 %43 to i64
  %45 = getelementptr inbounds nuw [1053 x %struct.WB_RANGE_TYPE], ptr @WB_RANGES, i64 0, i64 %44
  %46 = getelementptr inbounds nuw %struct.WB_RANGE_TYPE, ptr %45, i32 0, i32 2
  %47 = load i32, ptr %46, align 4, !tbaa !77
  br label %49

48:                                               ; preds = %34, %30
  br label %49

49:                                               ; preds = %48, %42
  %50 = phi i32 [ %47, %42 ], [ 0, %48 ]
  store i32 %50, ptr %6, align 4, !tbaa !9
  %51 = load i32, ptr %6, align 4, !tbaa !9
  call void @llvm.lifetime.end.p0(i64 4, ptr %6) #7
  call void @llvm.lifetime.end.p0(i64 4, ptr %5) #7
  call void @llvm.lifetime.end.p0(i64 4, ptr %4) #7
  call void @llvm.lifetime.end.p0(i64 4, ptr %3) #7
  ret i32 %51
}