; Function Attrs: nofree norecurse nosync nounwind memory(none) uwtable
define internal fastcc i32 @wb_get_type(i32 noundef %0) unnamed_addr #3 {
  br label %2

2:                                                ; preds = %1, %2
  %.016 = phi i32 [ 0, %1 ], [ %.1, %2 ]
  %.01315 = phi i32 [ 1053, %1 ], [ %.114, %2 ]
  %3 = add i32 %.016, %.01315
  %4 = lshr i32 %3, 1
  %5 = zext nneg i32 %4 to i64
  %6 = getelementptr inbounds nuw [1053 x %struct.WB_RANGE_TYPE], ptr @WB_RANGES, i64 0, i64 %5, i32 1
  %7 = load i32, ptr %6, align 4, !tbaa !54
  %8 = icmp ugt i32 %0, %7
  %9 = add nuw i32 %4, 1
  %.114 = select i1 %8, i32 %.01315, i32 %4
  %.1 = select i1 %8, i32 %9, i32 %.016
  %10 = icmp ult i32 %.1, %.114
  br i1 %10, label %2, label %11, !llvm.loop !56

11:                                               ; preds = %2
  %12 = icmp ult i32 %.1, 1053
  br i1 %12, label %13, label %20

13:                                               ; preds = %11
  %14 = zext nneg i32 %.1 to i64
  %15 = getelementptr inbounds nuw [1053 x %struct.WB_RANGE_TYPE], ptr @WB_RANGES, i64 0, i64 %14
  %16 = load i32, ptr %15, align 4, !tbaa !57
  %.not = icmp ult i32 %0, %16
  br i1 %.not, label %20, label %17

17:                                               ; preds = %13
  %18 = getelementptr inbounds nuw i8, ptr %15, i64 8
  %19 = load i32, ptr %18, align 4, !tbaa !58
  br label %20

20:                                               ; preds = %11, %13, %17
  %21 = phi i32 [ %19, %17 ], [ 0, %13 ], [ 0, %11 ]
  ret i32 %21
}